; Function Attrs: mustprogress nofree norecurse nosync nounwind willreturn memory(read, inaccessiblemem: none) uwtable
define noundef range(i32 -1, 2147483647) i32 @_ZNK13sentencepiece3bpe7Trainer12GetPrevIndexEii(ptr nocapture noundef nonnull readonly align 8 dereferenceable(856) %0, i32 noundef %1, i32 noundef %2) local_unnamed_addr #8 align 2 {
  %4 = getelementptr inbounds i8, ptr %0, i64 832
  %5 = sext i32 %1 to i64
  %6 = load ptr, ptr %4, align 8
  %7 = getelementptr inbounds %"class.std::vector.64", ptr %6, i64 %5
  %8 = zext i32 %2 to i64
  br label %9

9:                                                ; preds = %12, %3
  %indvars.iv = phi i64 [ %indvars.iv.next, %12 ], [ %8, %3 ]
  %10 = trunc nuw i64 %indvars.iv to i32
  %11 = icmp sgt i32 %10, 0
  br i1 %11, label %12, label %.split.loop.exit

12:                                               ; preds = %9
  %indvars.iv.next = add nsw i64 %indvars.iv, -1
  %13 = and i64 %indvars.iv.next, 4294967295
  %14 = load ptr, ptr %7, align 8
  %15 = getelementptr inbounds ptr, ptr %14, i64 %13
  %16 = load ptr, ptr %15, align 8
  %17 = icmp eq ptr %16, null
  br i1 %17, label %9, label %.split.loop.exit9, !llvm.loop !11

.split.loop.exit9:                                ; preds = %12
  %indvars.le = trunc i64 %indvars.iv.next to i32
  br label %.split.loop.exit

.split.loop.exit:                                 ; preds = %9, %.split.loop.exit9
  %.07 = phi i32 [ %indvars.le, %.split.loop.exit9 ], [ -1, %9 ]
  ret i32 %.07
}